target datalayout = "e-m:e-p270:32:32-p271:32:32-p272:64:64-i64:64-i128:128-f80:128-n8:16:32:64-S128"
target triple = "x86_64-pc-linux-gnu"

%"class.o3dgc::Vector.0" = type { ptr, i64, i64 }
%"class.o3dgc::CompressedTriangleFans" = type <{ %"class.o3dgc::Vector.0", %"class.o3dgc::Vector.0", %"class.o3dgc::Vector.0", %"class.o3dgc::Vector.0", %"class.o3dgc::Vector.0", %"class.o3dgc::Vector.0", ptr, i64, i32, [4 x i8] }>

; Function Attrs: mustprogress uwtable
define hidden noundef i32 @_ZN5o3dgc22CompressedTriangleFans4SaveERNS_12BinaryStreamEbNS_15O3DGCStreamTypeE(ptr noundef nonnull align 8 dereferenceable(164) %0, ptr noundef nonnull align 8 dereferenceable(28) %1, i1 noundef zeroext %2, i32 noundef %3) #0 align 2 {
  %5 = alloca ptr, align 8
  %6 = alloca ptr, align 8
  %7 = alloca i8, align 1
  %8 = alloca i32, align 4
  store ptr %0, ptr %5, align 8
  store ptr %1, ptr %6, align 8
  %9 = zext i1 %2 to i8
  store i8 %9, ptr %7, align 1
  store i32 %3, ptr %8, align 4
  %10 = load ptr, ptr %5, align 8
  %11 = load i32, ptr %8, align 4
  %12 = icmp eq i32 %11, 1
  br i1 %12, label %13, label %36

13:                                               ; preds = %4
  %14 = getelementptr inbounds nuw %"class.o3dgc::CompressedTriangleFans", ptr %10, i32 0, i32 0
  %15 = load ptr, ptr %6, align 8
  %16 = call noundef i32 @_ZN5o3dgc12SaveUIntDataERKNS_6VectorIlEERNS_12BinaryStreamE(ptr noundef nonnull align 8 dereferenceable(24) %14, ptr noundef nonnull align 8 dereferenceable(28) %15)
  %17 = getelementptr inbounds nuw %"class.o3dgc::CompressedTriangleFans", ptr %10, i32 0, i32 1
  %18 = load ptr, ptr %6, align 8
  %19 = call noundef i32 @_ZN5o3dgc12SaveUIntDataERKNS_6VectorIlEERNS_12BinaryStreamE(ptr noundef nonnull align 8 dereferenceable(24) %17, ptr noundef nonnull align 8 dereferenceable(28) %18)
  %20 = getelementptr inbounds nuw %"class.o3dgc::CompressedTriangleFans", ptr %10, i32 0, i32 2
  %21 = load ptr, ptr %6, align 8
  %22 = call noundef i32 @_ZN5o3dgc12SaveUIntDataERKNS_6VectorIlEERNS_12BinaryStreamE(ptr noundef nonnull align 8 dereferenceable(24) %20, ptr noundef nonnull align 8 dereferenceable(28) %21)
  %23 = getelementptr inbounds nuw %"class.o3dgc::CompressedTriangleFans", ptr %10, i32 0, i32 3
  %24 = load ptr, ptr %6, align 8
  %25 = call noundef i32 @_ZN5o3dgc11SaveBinDataERKNS_6VectorIlEERNS_12BinaryStreamE(ptr noundef nonnull align 8 dereferenceable(24) %23, ptr noundef nonnull align 8 dereferenceable(28) %24)
  %26 = getelementptr inbounds nuw %"class.o3dgc::CompressedTriangleFans", ptr %10, i32 0, i32 4
  %27 = load ptr, ptr %6, align 8
  %28 = call noundef i32 @_ZN5o3dgc11SaveIntDataERKNS_6VectorIlEERNS_12BinaryStreamE(ptr noundef nonnull align 8 dereferenceable(24) %26, ptr noundef nonnull align 8 dereferenceable(28) %27)
  %29 = load i8, ptr %7, align 1, !range !21, !noundef !22
  %30 = trunc i8 %29 to i1
  br i1 %30, label %31, label %35

31:                                               ; preds = %13
  %32 = getelementptr inbounds nuw %"class.o3dgc::CompressedTriangleFans", ptr %10, i32 0, i32 5
  %33 = load ptr, ptr %6, align 8
  %34 = call noundef i32 @_ZN5o3dgc12SaveUIntDataERKNS_6VectorIlEERNS_12BinaryStreamE(ptr noundef nonnull align 8 dereferenceable(24) %32, ptr noundef nonnull align 8 dereferenceable(28) %33)
  br label %35

35:                                               ; preds = %31, %13
  br label %59

36:                                               ; preds = %4
  %37 = getelementptr inbounds nuw %"class.o3dgc::CompressedTriangleFans", ptr %10, i32 0, i32 0
  %38 = load ptr, ptr %6, align 8
  %39 = call noundef i32 @_ZN5o3dgc22CompressedTriangleFans12SaveIntACEGCERKNS_6VectorIlEEmRNS_12BinaryStreamE(ptr noundef nonnull align 8 dereferenceable(164) %10, ptr noundef nonnull align 8 dereferenceable(24) %37, i64 noundef 4, ptr noundef nonnull align 8 dereferenceable(28) %38)
  %40 = getelementptr inbounds nuw %"class.o3dgc::CompressedTriangleFans", ptr %10, i32 0, i32 1
  %41 = load ptr, ptr %6, align 8
  %42 = call noundef i32 @_ZN5o3dgc22CompressedTriangleFans12SaveIntACEGCERKNS_6VectorIlEEmRNS_12BinaryStreamE(ptr noundef nonnull align 8 dereferenceable(164) %10, ptr noundef nonnull align 8 dereferenceable(24) %40, i64 noundef 16, ptr noundef nonnull align 8 dereferenceable(28) %41)
  %43 = getelementptr inbounds nuw %"class.o3dgc::CompressedTriangleFans", ptr %10, i32 0, i32 2
  %44 = load ptr, ptr %6, align 8
  %45 = call noundef i32 @_ZN5o3dgc22CompressedTriangleFans10SaveUIntACERKNS_6VectorIlEEmRNS_12BinaryStreamE(ptr noundef nonnull align 8 dereferenceable(164) %10, ptr noundef nonnull align 8 dereferenceable(24) %43, i64 noundef 10, ptr noundef nonnull align 8 dereferenceable(28) %44)
  %46 = getelementptr inbounds nuw %"class.o3dgc::CompressedTriangleFans", ptr %10, i32 0, i32 3
  %47 = load ptr, ptr %6, align 8
  %48 = call noundef i32 @_ZN5o3dgc22CompressedTriangleFans9SaveBinACERKNS_6VectorIlEERNS_12BinaryStreamE(ptr noundef nonnull align 8 dereferenceable(164) %10, ptr noundef nonnull align 8 dereferenceable(24) %46, ptr noundef nonnull align 8 dereferenceable(28) %47)
  %49 = getelementptr inbounds nuw %"class.o3dgc::CompressedTriangleFans", ptr %10, i32 0, i32 4
  %50 = load ptr, ptr %6, align 8
  %51 = call noundef i32 @_ZN5o3dgc22CompressedTriangleFans12SaveIntACEGCERKNS_6VectorIlEEmRNS_12BinaryStreamE(ptr noundef nonnull align 8 dereferenceable(164) %10, ptr noundef nonnull align 8 dereferenceable(24) %49, i64 noundef 8, ptr noundef nonnull align 8 dereferenceable(28) %50)
  %52 = load i8, ptr %7, align 1, !range !21, !noundef !22
  %53 = trunc i8 %52 to i1
  br i1 %53, label %54, label %58

54:                                               ; preds = %36
  %55 = getelementptr inbounds nuw %"class.o3dgc::CompressedTriangleFans", ptr %10, i32 0, i32 5
  %56 = load ptr, ptr %6, align 8
  %57 = call noundef i32 @_ZN5o3dgc22CompressedTriangleFans12SaveIntACEGCERKNS_6VectorIlEEmRNS_12BinaryStreamE(ptr noundef nonnull align 8 dereferenceable(164) %10, ptr noundef nonnull align 8 dereferenceable(24) %55, i64 noundef 16, ptr noundef nonnull align 8 dereferenceable(28) %56)
  br label %58

58:                                               ; preds = %54, %36
  br label %59

59:                                               ; preds = %58, %35
  ret i32 0
}