; Function Attrs: mustprogress uwtable
define hidden noundef i32 @_ZN5o3dgc22CompressedTriangleFans4SaveERNS_12BinaryStreamEbNS_15O3DGCStreamTypeE(ptr noundef nonnull align 8 captures(none) dereferenceable(164) %0, ptr noundef nonnull align 8 dereferenceable(28) %1, i1 noundef zeroext %2, i32 noundef %3) local_unnamed_addr #0 align 2 {
  %5 = icmp eq i32 %3, 1
  %6 = getelementptr inbounds nuw i8, ptr %0, i64 24
  %7 = getelementptr inbounds nuw i8, ptr %0, i64 48
  %8 = getelementptr inbounds nuw i8, ptr %0, i64 72
  %9 = getelementptr inbounds nuw i8, ptr %0, i64 96
  br i1 %5, label %10, label %19

10:                                               ; preds = %4
  %11 = tail call noundef i32 @_ZN5o3dgc12SaveUIntDataERKNS_6VectorIlEERNS_12BinaryStreamE(ptr noundef nonnull align 8 dereferenceable(24) %0, ptr noundef nonnull align 8 dereferenceable(28) %1)
  %12 = tail call noundef i32 @_ZN5o3dgc12SaveUIntDataERKNS_6VectorIlEERNS_12BinaryStreamE(ptr noundef nonnull align 8 dereferenceable(24) %6, ptr noundef nonnull align 8 dereferenceable(28) %1)
  %13 = tail call noundef i32 @_ZN5o3dgc12SaveUIntDataERKNS_6VectorIlEERNS_12BinaryStreamE(ptr noundef nonnull align 8 dereferenceable(24) %7, ptr noundef nonnull align 8 dereferenceable(28) %1)
  %14 = tail call noundef i32 @_ZN5o3dgc11SaveBinDataERKNS_6VectorIlEERNS_12BinaryStreamE(ptr noundef nonnull align 8 dereferenceable(24) %8, ptr noundef nonnull align 8 dereferenceable(28) %1)
  %15 = tail call noundef i32 @_ZN5o3dgc11SaveIntDataERKNS_6VectorIlEERNS_12BinaryStreamE(ptr noundef nonnull align 8 dereferenceable(24) %9, ptr noundef nonnull align 8 dereferenceable(28) %1)
  br i1 %2, label %16, label %28

16:                                               ; preds = %10
  %17 = getelementptr inbounds nuw i8, ptr %0, i64 120
  %18 = tail call noundef i32 @_ZN5o3dgc12SaveUIntDataERKNS_6VectorIlEERNS_12BinaryStreamE(ptr noundef nonnull align 8 dereferenceable(24) %17, ptr noundef nonnull align 8 dereferenceable(28) %1)
  br label %28

19:                                               ; preds = %4
  %20 = tail call noundef i32 @_ZN5o3dgc22CompressedTriangleFans12SaveIntACEGCERKNS_6VectorIlEEmRNS_12BinaryStreamE(ptr noundef nonnull align 8 dereferenceable(164) %0, ptr noundef nonnull align 8 dereferenceable(24) %0, i64 noundef 4, ptr noundef nonnull align 8 dereferenceable(28) %1)
  %21 = tail call noundef i32 @_ZN5o3dgc22CompressedTriangleFans12SaveIntACEGCERKNS_6VectorIlEEmRNS_12BinaryStreamE(ptr noundef nonnull align 8 dereferenceable(164) %0, ptr noundef nonnull align 8 dereferenceable(24) %6, i64 noundef 16, ptr noundef nonnull align 8 dereferenceable(28) %1)
  %22 = tail call noundef i32 @_ZN5o3dgc22CompressedTriangleFans10SaveUIntACERKNS_6VectorIlEEmRNS_12BinaryStreamE(ptr noundef nonnull align 8 dereferenceable(164) %0, ptr noundef nonnull align 8 dereferenceable(24) %7, i64 noundef 10, ptr noundef nonnull align 8 dereferenceable(28) %1)
  %23 = tail call noundef i32 @_ZN5o3dgc22CompressedTriangleFans9SaveBinACERKNS_6VectorIlEERNS_12BinaryStreamE(ptr noundef nonnull align 8 dereferenceable(164) %0, ptr noundef nonnull align 8 dereferenceable(24) %8, ptr noundef nonnull align 8 dereferenceable(28) %1)
  %24 = tail call noundef i32 @_ZN5o3dgc22CompressedTriangleFans12SaveIntACEGCERKNS_6VectorIlEEmRNS_12BinaryStreamE(ptr noundef nonnull align 8 dereferenceable(164) %0, ptr noundef nonnull align 8 dereferenceable(24) %9, i64 noundef 8, ptr noundef nonnull align 8 dereferenceable(28) %1)
  br i1 %2, label %25, label %28

25:                                               ; preds = %19
  %26 = getelementptr inbounds nuw i8, ptr %0, i64 120
  %27 = tail call noundef i32 @_ZN5o3dgc22CompressedTriangleFans12SaveIntACEGCERKNS_6VectorIlEEmRNS_12BinaryStreamE(ptr noundef nonnull align 8 dereferenceable(164) %0, ptr noundef nonnull align 8 dereferenceable(24) %26, i64 noundef 16, ptr noundef nonnull align 8 dereferenceable(28) %1)
  br label %28

28:                                               ; preds = %19, %25, %10, %16
  ret i32 0
}